; Function Attrs: alwaysinline norecurse nounwind ssp uwtable
define internal void @"_ZN6open3d4core15ParallelForCPU_IZZZNS_1t8geometry6kernel10pointcloud36EstimateCovariancesUsingKNNSearchCPUERKNS0_6TensorERS6_RKlENK3$_0clEvENKUlvE0_clEvEUllE_EEvRKNS0_6DeviceElRKT_.omp_outlined"(ptr noalias noundef readonly captures(none) %0, ptr noalias readnone captures(none) %1, ptr noundef nonnull readonly align 8 captures(none) dereferenceable(8) %2, ptr noundef nonnull align 8 dereferenceable(32) %3) #25 personality ptr @__gxx_personality_v0 {
  %5 = alloca i64, align 8
  %6 = alloca i64, align 8
  %7 = alloca i64, align 8
  %8 = alloca i32, align 4
  %9 = load i64, ptr %2, align 8, !tbaa !8
  %10 = icmp sgt i64 %9, 0
  br i1 %10, label %11, label %33

11:                                               ; preds = %4
  %12 = add nsw i64 %9, -1
  call void @llvm.lifetime.start.p0(i64 8, ptr nonnull %5) #26
  store i64 0, ptr %5, align 8, !tbaa !8
  call void @llvm.lifetime.start.p0(i64 8, ptr nonnull %6) #26
  store i64 %12, ptr %6, align 8, !tbaa !8
  call void @llvm.lifetime.start.p0(i64 8, ptr nonnull %7) #26
  store i64 1, ptr %7, align 8, !tbaa !8
  call void @llvm.lifetime.start.p0(i64 4, ptr nonnull %8) #26
  store i32 0, ptr %8, align 4, !tbaa !34
  %13 = load i32, ptr %0, align 4, !tbaa !34
  call void @__kmpc_for_static_init_8(ptr nonnull @1, i32 %13, i32 34, ptr nonnull %8, ptr nonnull %5, ptr nonnull %6, ptr nonnull %7, i64 1, i64 1)
  %14 = load i64, ptr %6, align 8, !tbaa !8
  %15 = call i64 @llvm.smin.i64(i64 %14, i64 %12)
  store i64 %15, ptr %6, align 8, !tbaa !8
  %16 = load i64, ptr %5, align 8, !tbaa !8
  %.not13 = icmp sgt i64 %16, %15
  br i1 %.not13, label %._crit_edge, label %.lr.ph

.lr.ph:                                           ; preds = %11
  %17 = getelementptr inbounds nuw i8, ptr %3, i64 8
  %18 = getelementptr inbounds nuw i8, ptr %3, i64 16
  %19 = getelementptr inbounds nuw i8, ptr %3, i64 24
  br label %20

20:                                               ; preds = %.lr.ph, %20
  %.014 = phi i64 [ %16, %.lr.ph ], [ %31, %20 ]
  %21 = load i32, ptr %3, align 8, !tbaa !1088
  %22 = trunc i64 %.014 to i32
  %23 = mul i32 %21, %22
  %24 = load ptr, ptr %17, align 8, !tbaa !1090
  %25 = load ptr, ptr %18, align 8, !tbaa !1091
  %26 = sext i32 %23 to i64
  %27 = getelementptr inbounds i32, ptr %25, i64 %26
  %28 = load ptr, ptr %19, align 8, !tbaa !1092
  %sext.i = mul i64 %.014, 38654705664
  %29 = ashr exact i64 %sext.i, 29
  %30 = getelementptr inbounds i8, ptr %28, i64 %29
  call void @_ZN6open3d1t8geometry6kernel10pointcloud49EstimatePointWiseRobustNormalizedCovarianceKernelIdEEvPKT_PKiRS8_PS5_(ptr noundef %24, ptr noundef %27, ptr noundef nonnull align 8 dereferenceable(32) %3, ptr noundef %30)
  %31 = add nsw i64 %.014, 1
  %32 = load i64, ptr %6, align 8, !tbaa !8
  %.not.not = icmp slt i64 %.014, %32
  br i1 %.not.not, label %20, label %._crit_edge

._crit_edge:                                      ; preds = %20, %11
  call void @__kmpc_for_static_fini(ptr nonnull @1, i32 %13)
  call void @llvm.lifetime.end.p0(i64 4, ptr nonnull %8) #26
  call void @llvm.lifetime.end.p0(i64 8, ptr nonnull %7) #26
  call void @llvm.lifetime.end.p0(i64 8, ptr nonnull %6) #26
  call void @llvm.lifetime.end.p0(i64 8, ptr nonnull %5) #26
  br label %33

33:                                               ; preds = %._crit_edge, %4
  ret void
}